; ModuleID = '58/1013.c'
source_filename = "58/1013.c"
target datalayout = "e-m:e-p270:32:32-p271:32:32-p272:64:64-i64:64-f80:128-n8:16:32:64-S128"
target triple = "x86_64-pc-linux-gnu"

@.str = private unnamed_addr constant [3 x i8] c"%d\00", align 1
@.str.1 = private unnamed_addr constant [4 x i8] c"%d\0A\00", align 1

; Function Attrs: noinline nounwind uwtable
define dso_local i32 @main() #0 {
  %1 = alloca i32, align 4
  %2 = alloca i32, align 4
  %3 = alloca i32, align 4
  %4 = alloca i32, align 4
  %5 = alloca i32, align 4
  %6 = alloca i32, align 4
  %7 = alloca i8**, align 8
  store i32 0, i32* %1, align 4
  store i32 0, i32* %6, align 4
  %8 = call i32 (i8*, ...) @__isoc99_scanf(i8* getelementptr inbounds ([3 x i8], [3 x i8]* @.str, i64 0, i64 0), i32* %2)
  %9 = call i32 @getchar()
  %10 = load i32, i32* %2, align 4
  %11 = sext i32 %10 to i64
  %12 = mul i64 %11, 8
  %13 = call noalias i8* @malloc(i64 %12) #4
  %14 = bitcast i8* %13 to i8**
  store i8** %14, i8*** %7, align 8
  store i32 0, i32* %5, align 4
  br label %15

15:                                               ; preds = %31, %0
  %16 = load i32, i32* %5, align 4
  %17 = load i32, i32* %2, align 4
  %18 = icmp slt i32 %16, %17
  br i1 %18, label %19, label %34

19:                                               ; preds = %15
  %20 = call noalias i8* @malloc(i64 80) #4
  %21 = load i8**, i8*** %7, align 8
  %22 = load i32, i32* %5, align 4
  %23 = sext i32 %22 to i64
  %24 = getelementptr inbounds i8*, i8** %21, i64 %23
  store i8* %20, i8** %24, align 8
  %25 = load i8**, i8*** %7, align 8
  %26 = load i32, i32* %5, align 4
  %27 = sext i32 %26 to i64
  %28 = getelementptr inbounds i8*, i8** %25, i64 %27
  %29 = load i8*, i8** %28, align 8
  %30 = call i32 (i8*, ...) bitcast (i32 (...)* @gets to i32 (i8*, ...)*)(i8* %29)
  br label %31

31:                                               ; preds = %19
  %32 = load i32, i32* %5, align 4
  %33 = add nsw i32 %32, 1
  store i32 %33, i32* %5, align 4
  br label %15

34:                                               ; preds = %15
  store i32 0, i32* %5, align 4
  br label %35

35:                                               ; preds = %196, %34
  %36 = load i32, i32* %5, align 4
  %37 = load i32, i32* %2, align 4
  %38 = icmp slt i32 %36, %37
  br i1 %38, label %39, label %199

39:                                               ; preds = %35
  %40 = load i8**, i8*** %7, align 8
  %41 = load i32, i32* %5, align 4
  %42 = sext i32 %41 to i64
  %43 = getelementptr inbounds i8*, i8** %40, i64 %42
  %44 = load i8*, i8** %43, align 8
  %45 = call i64 @strlen(i8* %44) #5
  %46 = trunc i64 %45 to i32
  store i32 %46, i32* %3, align 4
  %47 = load i8**, i8*** %7, align 8
  %48 = load i32, i32* %5, align 4
  %49 = sext i32 %48 to i64
  %50 = getelementptr inbounds i8*, i8** %47, i64 %49
  %51 = load i8*, i8** %50, align 8
  %52 = load i8, i8* %51, align 1
  %53 = sext i8 %52 to i32
  %54 = icmp eq i32 %53, 95
  br i1 %54, label %91, label %55

55:                                               ; preds = %39
  %56 = load i8**, i8*** %7, align 8
  %57 = load i32, i32* %5, align 4
  %58 = sext i32 %57 to i64
  %59 = getelementptr inbounds i8*, i8** %56, i64 %58
  %60 = load i8*, i8** %59, align 8
  %61 = load i8, i8* %60, align 1
  %62 = sext i8 %61 to i32
  %63 = icmp sge i32 %62, 97
  br i1 %63, label %64, label %73

64:                                               ; preds = %55
  %65 = load i8**, i8*** %7, align 8
  %66 = load i32, i32* %5, align 4
  %67 = sext i32 %66 to i64
  %68 = getelementptr inbounds i8*, i8** %65, i64 %67
  %69 = load i8*, i8** %68, align 8
  %70 = load i8, i8* %69, align 1
  %71 = sext i8 %70 to i32
  %72 = icmp sle i32 %71, 122
  br i1 %72, label %91, label %73

73:                                               ; preds = %64, %55
  %74 = load i8**, i8*** %7, align 8
  %75 = load i32, i32* %5, align 4
  %76 = sext i32 %75 to i64
  %77 = getelementptr inbounds i8*, i8** %74, i64 %76
  %78 = load i8*, i8** %77, align 8
  %79 = load i8, i8* %78, align 1
  %80 = sext i8 %79 to i32
  %81 = icmp sge i32 %80, 65
  br i1 %81, label %82, label %187

82:                                               ; preds = %73
  %83 = load i8**, i8*** %7, align 8
  %84 = load i32, i32* %5, align 4
  %85 = sext i32 %84 to i64
  %86 = getelementptr inbounds i8*, i8** %83, i64 %85
  %87 = load i8*, i8** %86, align 8
  %88 = load i8, i8* %87, align 1
  %89 = sext i8 %88 to i32
  %90 = icmp sle i32 %89, 90
  br i1 %90, label %91, label %187

91:                                               ; preds = %82, %64, %39
  store i32 0, i32* %4, align 4
  br label %92

92:                                               ; preds = %183, %91
  %93 = load i32, i32* %4, align 4
  %94 = load i32, i32* %3, align 4
  %95 = icmp slt i32 %93, %94
  br i1 %95, label %96, label %186

96:                                               ; preds = %92
  %97 = load i8**, i8*** %7, align 8
  %98 = load i32, i32* %5, align 4
  %99 = sext i32 %98 to i64
  %100 = getelementptr inbounds i8*, i8** %97, i64 %99
  %101 = load i8*, i8** %100, align 8
  %102 = load i32, i32* %4, align 4
  %103 = sext i32 %102 to i64
  %104 = getelementptr inbounds i8, i8* %101, i64 %103
  %105 = load i8, i8* %104, align 1
  %106 = sext i8 %105 to i32
  %107 = icmp eq i32 %106, 95
  br i1 %107, label %180, label %108

108:                                              ; preds = %96
  %109 = load i8**, i8*** %7, align 8
  %110 = load i32, i32* %5, align 4
  %111 = sext i32 %110 to i64
  %112 = getelementptr inbounds i8*, i8** %109, i64 %111
  %113 = load i8*, i8** %112, align 8
  %114 = load i32, i32* %4, align 4
  %115 = sext i32 %114 to i64
  %116 = getelementptr inbounds i8, i8* %113, i64 %115
  %117 = load i8, i8* %116, align 1
  %118 = sext i8 %117 to i32
  %119 = icmp sge i32 %118, 97
  br i1 %119, label %120, label %132

120:                                              ; preds = %108
  %121 = load i8**, i8*** %7, align 8
  %122 = load i32, i32* %5, align 4
  %123 = sext i32 %122 to i64
  %124 = getelementptr inbounds i8*, i8** %121, i64 %123
  %125 = load i8*, i8** %124, align 8
  %126 = load i32, i32* %4, align 4
  %127 = sext i32 %126 to i64
  %128 = getelementptr inbounds i8, i8* %125, i64 %127
  %129 = load i8, i8* %128, align 1
  %130 = sext i8 %129 to i32
  %131 = icmp sle i32 %130, 122
  br i1 %131, label %180, label %132

132:                                              ; preds = %120, %108
  %133 = load i8**, i8*** %7, align 8
  %134 = load i32, i32* %5, align 4
  %135 = sext i32 %134 to i64
  %136 = getelementptr inbounds i8*, i8** %133, i64 %135
  %137 = load i8*, i8** %136, align 8
  %138 = load i32, i32* %4, align 4
  %139 = sext i32 %138 to i64
  %140 = getelementptr inbounds i8, i8* %137, i64 %139
  %141 = load i8, i8* %140, align 1
  %142 = sext i8 %141 to i32
  %143 = icmp sge i32 %142, 65
  br i1 %143, label %144, label %156

144:                                              ; preds = %132
  %145 = load i8**, i8*** %7, align 8
  %146 = load i32, i32* %5, align 4
  %147 = sext i32 %146 to i64
  %148 = getelementptr inbounds i8*, i8** %145, i64 %147
  %149 = load i8*, i8** %148, align 8
  %150 = load i32, i32* %4, align 4
  %151 = sext i32 %150 to i64
  %152 = getelementptr inbounds i8, i8* %149, i64 %151
  %153 = load i8, i8* %152, align 1
  %154 = sext i8 %153 to i32
  %155 = icmp sle i32 %154, 90
  br i1 %155, label %180, label %156

156:                                              ; preds = %144, %132
  %157 = load i8**, i8*** %7, align 8
  %158 = load i32, i32* %5, align 4
  %159 = sext i32 %158 to i64
  %160 = getelementptr inbounds i8*, i8** %157, i64 %159
  %161 = load i8*, i8** %160, align 8
  %162 = load i32, i32* %4, align 4
  %163 = sext i32 %162 to i64
  %164 = getelementptr inbounds i8, i8* %161, i64 %163
  %165 = load i8, i8* %164, align 1
  %166 = sext i8 %165 to i32
  %167 = icmp sge i32 %166, 48
  br i1 %167, label %168, label %181

168:                                              ; preds = %156
  %169 = load i8**, i8*** %7, align 8
  %170 = load i32, i32* %5, align 4
  %171 = sext i32 %170 to i64
  %172 = getelementptr inbounds i8*, i8** %169, i64 %171
  %173 = load i8*, i8** %172, align 8
  %174 = load i32, i32* %4, align 4
  %175 = sext i32 %174 to i64
  %176 = getelementptr inbounds i8, i8* %173, i64 %175
  %177 = load i8, i8* %176, align 1
  %178 = sext i8 %177 to i32
  %179 = icmp sle i32 %178, 57
  br i1 %179, label %180, label %181

180:                                              ; preds = %168, %144, %120, %96
  store i32 0, i32* %6, align 4
  br label %182

181:                                              ; preds = %168, %156
  store i32 1, i32* %6, align 4
  br label %186

182:                                              ; preds = %180
  br label %183

183:                                              ; preds = %182
  %184 = load i32, i32* %4, align 4
  %185 = add nsw i32 %184, 1
  store i32 %185, i32* %4, align 4
  br label %92

186:                                              ; preds = %181, %92
  br label %188

187:                                              ; preds = %82, %73
  store i32 1, i32* %6, align 4
  br label %188

188:                                              ; preds = %187, %186
  %189 = load i32, i32* %6, align 4
  %190 = icmp eq i32 %189, 0
  br i1 %190, label %191, label %193

191:                                              ; preds = %188
  %192 = call i32 (i8*, ...) @printf(i8* getelementptr inbounds ([4 x i8], [4 x i8]* @.str.1, i64 0, i64 0), i32 1)
  br label %195

193:                                              ; preds = %188
  %194 = call i32 (i8*, ...) @printf(i8* getelementptr inbounds ([4 x i8], [4 x i8]* @.str.1, i64 0, i64 0), i32 0)
  br label %195

195:                                              ; preds = %193, %191
  br label %196

196:                                              ; preds = %195
  %197 = load i32, i32* %5, align 4
  %198 = add nsw i32 %197, 1
  store i32 %198, i32* %5, align 4
  br label %35

199:                                              ; preds = %35
  ret i32 0
}

declare dso_local i32 @__isoc99_scanf(i8*, ...) #1

declare dso_local i32 @getchar() #1

; Function Attrs: nounwind
declare dso_local noalias i8* @malloc(i64) #2

declare dso_local i32 @gets(...) #1

; Function Attrs: nounwind readonly
declare dso_local i64 @strlen(i8*) #3

declare dso_local i32 @printf(i8*, ...) #1


!llvm.module.flags = !{!0}
!llvm.ident = !{!1}

!0 = !{i32 1, !"wchar_size", i32 4}
!1 = !{!"clang version 10.0.0-4ubuntu1 "}
